target datalayout = "e-m:e-p270:32:32-p271:32:32-p272:64:64-i64:64-i128:128-f80:128-n8:16:32:64-S128"
target triple = "x86_64-pc-linux-gnu"

%struct.evp_pkey_ctx_st = type { i32, ptr, ptr, ptr, ptr, %union.anon, %struct.anon.4, ptr, ptr, ptr, i32, i32, ptr, ptr, ptr, ptr, ptr, i8, ptr }
%union.anon = type { %struct.anon.0 }
%struct.anon.0 = type { ptr, ptr }
%struct.anon.4 = type { ptr, ptr, i64, i8 }
%struct.anon.1 = type { ptr, ptr }
%struct.anon.2 = type { ptr, ptr }
%struct.anon = type { ptr }
%struct.anon.3 = type { ptr, ptr }
%struct.CRYPTO_REF_COUNT = type { i32 }
%struct.evp_signature_st = type { i32, ptr, ptr, ptr, %struct.CRYPTO_REF_COUNT, ptr, ptr, ptr, ptr, ptr, ptr, ptr, ptr, ptr, ptr, ptr, ptr, ptr, ptr, ptr, ptr, ptr, ptr, ptr, ptr, ptr, ptr, ptr, ptr, ptr, ptr, ptr, ptr, ptr, ptr, ptr, ptr }
%struct.evp_keyexch_st = type { i32, ptr, ptr, ptr, %struct.CRYPTO_REF_COUNT, ptr, ptr, ptr, ptr, ptr, ptr, ptr, ptr, ptr, ptr }
%struct.evp_kem_st = type { i32, ptr, ptr, ptr, %struct.CRYPTO_REF_COUNT, ptr, ptr, ptr, ptr, ptr, ptr, ptr, ptr, ptr, ptr, ptr, ptr, ptr }
%struct.evp_asym_cipher_st = type { i32, ptr, ptr, ptr, %struct.CRYPTO_REF_COUNT, ptr, ptr, ptr, ptr, ptr, ptr, ptr, ptr, ptr, ptr, ptr }
%struct.evp_keymgmt_st = type { i32, i32, i32, ptr, ptr, ptr, %struct.CRYPTO_REF_COUNT, ptr, ptr, ptr, ptr, ptr, ptr, ptr, ptr, ptr, ptr, ptr, ptr, ptr, ptr, ptr, ptr, ptr, ptr, ptr, ptr, ptr, ptr, ptr, ptr, ptr, ptr }

; Function Attrs: nounwind uwtable
define i32 @evp_pkey_ctx_state(ptr noundef %0) #0 {
  %2 = alloca i32, align 4
  %3 = alloca ptr, align 8
  store ptr %0, ptr %3, align 8, !tbaa !18
  %4 = load ptr, ptr %3, align 8, !tbaa !18
  %5 = getelementptr inbounds nuw %struct.evp_pkey_ctx_st, ptr %4, i32 0, i32 0
  %6 = load i32, ptr %5, align 8, !tbaa !20
  %7 = icmp eq i32 %6, 0
  br i1 %7, label %8, label %9

8:                                                ; preds = %1
  store i32 0, ptr %2, align 4
  br label %71

9:                                                ; preds = %1
  %10 = load ptr, ptr %3, align 8, !tbaa !18
  %11 = getelementptr inbounds nuw %struct.evp_pkey_ctx_st, ptr %10, i32 0, i32 0
  %12 = load i32, ptr %11, align 8, !tbaa !20
  %13 = and i32 %12, 2048
  %14 = icmp ne i32 %13, 0
  br i1 %14, label %15, label %21

15:                                               ; preds = %9
  %16 = load ptr, ptr %3, align 8, !tbaa !18
  %17 = getelementptr inbounds nuw %struct.evp_pkey_ctx_st, ptr %16, i32 0, i32 5
  %18 = getelementptr inbounds nuw %struct.anon.0, ptr %17, i32 0, i32 1
  %19 = load ptr, ptr %18, align 8, !tbaa !31
  %20 = icmp ne ptr %19, null
  br i1 %20, label %69, label %21

21:                                               ; preds = %15, %9
  %22 = load ptr, ptr %3, align 8, !tbaa !18
  %23 = getelementptr inbounds nuw %struct.evp_pkey_ctx_st, ptr %22, i32 0, i32 0
  %24 = load i32, ptr %23, align 8, !tbaa !20
  %25 = and i32 %24, 49648
  %26 = icmp ne i32 %25, 0
  br i1 %26, label %27, label %33

27:                                               ; preds = %21
  %28 = load ptr, ptr %3, align 8, !tbaa !18
  %29 = getelementptr inbounds nuw %struct.evp_pkey_ctx_st, ptr %28, i32 0, i32 5
  %30 = getelementptr inbounds nuw %struct.anon.1, ptr %29, i32 0, i32 1
  %31 = load ptr, ptr %30, align 8, !tbaa !31
  %32 = icmp ne ptr %31, null
  br i1 %32, label %69, label %33

33:                                               ; preds = %27, %21
  %34 = load ptr, ptr %3, align 8, !tbaa !18
  %35 = getelementptr inbounds nuw %struct.evp_pkey_ctx_st, ptr %34, i32 0, i32 0
  %36 = load i32, ptr %35, align 8, !tbaa !20
  %37 = and i32 %36, 1536
  %38 = icmp ne i32 %37, 0
  br i1 %38, label %39, label %45

39:                                               ; preds = %33
  %40 = load ptr, ptr %3, align 8, !tbaa !18
  %41 = getelementptr inbounds nuw %struct.evp_pkey_ctx_st, ptr %40, i32 0, i32 5
  %42 = getelementptr inbounds nuw %struct.anon.2, ptr %41, i32 0, i32 1
  %43 = load ptr, ptr %42, align 8, !tbaa !31
  %44 = icmp ne ptr %43, null
  br i1 %44, label %69, label %45

45:                                               ; preds = %39, %33
  %46 = load ptr, ptr %3, align 8, !tbaa !18
  %47 = getelementptr inbounds nuw %struct.evp_pkey_ctx_st, ptr %46, i32 0, i32 0
  %48 = load i32, ptr %47, align 8, !tbaa !20
  %49 = and i32 %48, 6
  %50 = icmp ne i32 %49, 0
  br i1 %50, label %51, label %57

51:                                               ; preds = %45
  %52 = load ptr, ptr %3, align 8, !tbaa !18
  %53 = getelementptr inbounds nuw %struct.evp_pkey_ctx_st, ptr %52, i32 0, i32 5
  %54 = getelementptr inbounds nuw %struct.anon, ptr %53, i32 0, i32 0
  %55 = load ptr, ptr %54, align 8, !tbaa !31
  %56 = icmp ne ptr %55, null
  br i1 %56, label %69, label %57

57:                                               ; preds = %51, %45
  %58 = load ptr, ptr %3, align 8, !tbaa !18
  %59 = getelementptr inbounds nuw %struct.evp_pkey_ctx_st, ptr %58, i32 0, i32 0
  %60 = load i32, ptr %59, align 8, !tbaa !20
  %61 = and i32 %60, 12288
  %62 = icmp ne i32 %61, 0
  br i1 %62, label %63, label %70

63:                                               ; preds = %57
  %64 = load ptr, ptr %3, align 8, !tbaa !18
  %65 = getelementptr inbounds nuw %struct.evp_pkey_ctx_st, ptr %64, i32 0, i32 5
  %66 = getelementptr inbounds nuw %struct.anon.3, ptr %65, i32 0, i32 1
  %67 = load ptr, ptr %66, align 8, !tbaa !31
  %68 = icmp ne ptr %67, null
  br i1 %68, label %69, label %70

69:                                               ; preds = %63, %51, %39, %27, %15
  store i32 2, ptr %2, align 4
  br label %71

70:                                               ; preds = %63, %57
  store i32 1, ptr %2, align 4
  br label %71

71:                                               ; preds = %70, %69, %8
  %72 = load i32, ptr %2, align 4
  ret i32 %72
}

; Function Attrs: nounwind uwtable
define i32 @EVP_PKEY_CTX_set_params(ptr noundef %0, ptr noundef %1) #0 {
  %3 = alloca i32, align 4
  %4 = alloca ptr, align 8
  %5 = alloca ptr, align 8
  store ptr %0, ptr %4, align 8, !tbaa !18
  store ptr %1, ptr %5, align 8, !tbaa !78
  %6 = load ptr, ptr %4, align 8, !tbaa !18
  %7 = call i32 @evp_pkey_ctx_state(ptr noundef %6)
  switch i32 %7, label %173 [
    i32 2, label %8
    i32 0, label %169
    i32 1, label %169
  ]

8:                                                ; preds = %2
  %9 = load ptr, ptr %4, align 8, !tbaa !18
  %10 = getelementptr inbounds nuw %struct.evp_pkey_ctx_st, ptr %9, i32 0, i32 0
  %11 = load i32, ptr %10, align 8, !tbaa !20
  %12 = and i32 %11, 2048
  %13 = icmp ne i32 %12, 0
  br i1 %13, label %14, label %41

14:                                               ; preds = %8
  %15 = load ptr, ptr %4, align 8, !tbaa !18
  %16 = getelementptr inbounds nuw %struct.evp_pkey_ctx_st, ptr %15, i32 0, i32 5
  %17 = getelementptr inbounds nuw %struct.anon.0, ptr %16, i32 0, i32 0
  %18 = load ptr, ptr %17, align 8, !tbaa !31
  %19 = icmp ne ptr %18, null
  br i1 %19, label %20, label %41

20:                                               ; preds = %14
  %21 = load ptr, ptr %4, align 8, !tbaa !18
  %22 = getelementptr inbounds nuw %struct.evp_pkey_ctx_st, ptr %21, i32 0, i32 5
  %23 = getelementptr inbounds nuw %struct.anon.0, ptr %22, i32 0, i32 0
  %24 = load ptr, ptr %23, align 8, !tbaa !31
  %25 = getelementptr inbounds nuw %struct.evp_keyexch_st, ptr %24, i32 0, i32 11
  %26 = load ptr, ptr %25, align 8, !tbaa !80
  %27 = icmp ne ptr %26, null
  br i1 %27, label %28, label %41

28:                                               ; preds = %20
  %29 = load ptr, ptr %4, align 8, !tbaa !18
  %30 = getelementptr inbounds nuw %struct.evp_pkey_ctx_st, ptr %29, i32 0, i32 5
  %31 = getelementptr inbounds nuw %struct.anon.0, ptr %30, i32 0, i32 0
  %32 = load ptr, ptr %31, align 8, !tbaa !31
  %33 = getelementptr inbounds nuw %struct.evp_keyexch_st, ptr %32, i32 0, i32 11
  %34 = load ptr, ptr %33, align 8, !tbaa !80
  %35 = load ptr, ptr %4, align 8, !tbaa !18
  %36 = getelementptr inbounds nuw %struct.evp_pkey_ctx_st, ptr %35, i32 0, i32 5
  %37 = getelementptr inbounds nuw %struct.anon.0, ptr %36, i32 0, i32 1
  %38 = load ptr, ptr %37, align 8, !tbaa !31
  %39 = load ptr, ptr %5, align 8, !tbaa !78
  %40 = call i32 %34(ptr noundef %38, ptr noundef %39)
  store i32 %40, ptr %3, align 4
  br label %174

41:                                               ; preds = %20, %14, %8
  %42 = load ptr, ptr %4, align 8, !tbaa !18
  %43 = getelementptr inbounds nuw %struct.evp_pkey_ctx_st, ptr %42, i32 0, i32 0
  %44 = load i32, ptr %43, align 8, !tbaa !20
  %45 = and i32 %44, 49648
  %46 = icmp ne i32 %45, 0
  br i1 %46, label %47, label %74

47:                                               ; preds = %41
  %48 = load ptr, ptr %4, align 8, !tbaa !18
  %49 = getelementptr inbounds nuw %struct.evp_pkey_ctx_st, ptr %48, i32 0, i32 5
  %50 = getelementptr inbounds nuw %struct.anon.1, ptr %49, i32 0, i32 0
  %51 = load ptr, ptr %50, align 8, !tbaa !31
  %52 = icmp ne ptr %51, null
  br i1 %52, label %53, label %74

53:                                               ; preds = %47
  %54 = load ptr, ptr %4, align 8, !tbaa !18
  %55 = getelementptr inbounds nuw %struct.evp_pkey_ctx_st, ptr %54, i32 0, i32 5
  %56 = getelementptr inbounds nuw %struct.anon.1, ptr %55, i32 0, i32 0
  %57 = load ptr, ptr %56, align 8, !tbaa !31
  %58 = getelementptr inbounds nuw %struct.evp_signature_st, ptr %57, i32 0, i32 30
  %59 = load ptr, ptr %58, align 8, !tbaa !81
  %60 = icmp ne ptr %59, null
  br i1 %60, label %61, label %74

61:                                               ; preds = %53
  %62 = load ptr, ptr %4, align 8, !tbaa !18
  %63 = getelementptr inbounds nuw %struct.evp_pkey_ctx_st, ptr %62, i32 0, i32 5
  %64 = getelementptr inbounds nuw %struct.anon.1, ptr %63, i32 0, i32 0
  %65 = load ptr, ptr %64, align 8, !tbaa !31
  %66 = getelementptr inbounds nuw %struct.evp_signature_st, ptr %65, i32 0, i32 30
  %67 = load ptr, ptr %66, align 8, !tbaa !81
  %68 = load ptr, ptr %4, align 8, !tbaa !18
  %69 = getelementptr inbounds nuw %struct.evp_pkey_ctx_st, ptr %68, i32 0, i32 5
  %70 = getelementptr inbounds nuw %struct.anon.1, ptr %69, i32 0, i32 1
  %71 = load ptr, ptr %70, align 8, !tbaa !31
  %72 = load ptr, ptr %5, align 8, !tbaa !78
  %73 = call i32 %67(ptr noundef %71, ptr noundef %72)
  store i32 %73, ptr %3, align 4
  br label %174

74:                                               ; preds = %53, %47, %41
  %75 = load ptr, ptr %4, align 8, !tbaa !18
  %76 = getelementptr inbounds nuw %struct.evp_pkey_ctx_st, ptr %75, i32 0, i32 0
  %77 = load i32, ptr %76, align 8, !tbaa !20
  %78 = and i32 %77, 1536
  %79 = icmp ne i32 %78, 0
  br i1 %79, label %80, label %107

80:                                               ; preds = %74
  %81 = load ptr, ptr %4, align 8, !tbaa !18
  %82 = getelementptr inbounds nuw %struct.evp_pkey_ctx_st, ptr %81, i32 0, i32 5
  %83 = getelementptr inbounds nuw %struct.anon.2, ptr %82, i32 0, i32 0
  %84 = load ptr, ptr %83, align 8, !tbaa !31
  %85 = icmp ne ptr %84, null
  br i1 %85, label %86, label %107

86:                                               ; preds = %80
  %87 = load ptr, ptr %4, align 8, !tbaa !18
  %88 = getelementptr inbounds nuw %struct.evp_pkey_ctx_st, ptr %87, i32 0, i32 5
  %89 = getelementptr inbounds nuw %struct.anon.2, ptr %88, i32 0, i32 0
  %90 = load ptr, ptr %89, align 8, !tbaa !31
  %91 = getelementptr inbounds nuw %struct.evp_asym_cipher_st, ptr %90, i32 0, i32 14
  %92 = load ptr, ptr %91, align 8, !tbaa !82
  %93 = icmp ne ptr %92, null
  br i1 %93, label %94, label %107

94:                                               ; preds = %86
  %95 = load ptr, ptr %4, align 8, !tbaa !18
  %96 = getelementptr inbounds nuw %struct.evp_pkey_ctx_st, ptr %95, i32 0, i32 5
  %97 = getelementptr inbounds nuw %struct.anon.2, ptr %96, i32 0, i32 0
  %98 = load ptr, ptr %97, align 8, !tbaa !31
  %99 = getelementptr inbounds nuw %struct.evp_asym_cipher_st, ptr %98, i32 0, i32 14
  %100 = load ptr, ptr %99, align 8, !tbaa !82
  %101 = load ptr, ptr %4, align 8, !tbaa !18
  %102 = getelementptr inbounds nuw %struct.evp_pkey_ctx_st, ptr %101, i32 0, i32 5
  %103 = getelementptr inbounds nuw %struct.anon.2, ptr %102, i32 0, i32 1
  %104 = load ptr, ptr %103, align 8, !tbaa !31
  %105 = load ptr, ptr %5, align 8, !tbaa !78
  %106 = call i32 %100(ptr noundef %104, ptr noundef %105)
  store i32 %106, ptr %3, align 4
  br label %174

107:                                              ; preds = %86, %80, %74
  %108 = load ptr, ptr %4, align 8, !tbaa !18
  %109 = getelementptr inbounds nuw %struct.evp_pkey_ctx_st, ptr %108, i32 0, i32 0
  %110 = load i32, ptr %109, align 8, !tbaa !20
  %111 = and i32 %110, 6
  %112 = icmp ne i32 %111, 0
  br i1 %112, label %113, label %135

113:                                              ; preds = %107
  %114 = load ptr, ptr %4, align 8, !tbaa !18
  %115 = getelementptr inbounds nuw %struct.evp_pkey_ctx_st, ptr %114, i32 0, i32 4
  %116 = load ptr, ptr %115, align 8, !tbaa !52
  %117 = icmp ne ptr %116, null
  br i1 %117, label %118, label %135

118:                                              ; preds = %113
  %119 = load ptr, ptr %4, align 8, !tbaa !18
  %120 = getelementptr inbounds nuw %struct.evp_pkey_ctx_st, ptr %119, i32 0, i32 4
  %121 = load ptr, ptr %120, align 8, !tbaa !52
  %122 = getelementptr inbounds nuw %struct.evp_keymgmt_st, ptr %121, i32 0, i32 17
  %123 = load ptr, ptr %122, align 8, !tbaa !83
  %124 = icmp ne ptr %123, null
  br i1 %124, label %125, label %135

125:                                              ; preds = %118
  %126 = load ptr, ptr %4, align 8, !tbaa !18
  %127 = getelementptr inbounds nuw %struct.evp_pkey_ctx_st, ptr %126, i32 0, i32 4
  %128 = load ptr, ptr %127, align 8, !tbaa !52
  %129 = load ptr, ptr %4, align 8, !tbaa !18
  %130 = getelementptr inbounds nuw %struct.evp_pkey_ctx_st, ptr %129, i32 0, i32 5
  %131 = getelementptr inbounds nuw %struct.anon, ptr %130, i32 0, i32 0
  %132 = load ptr, ptr %131, align 8, !tbaa !31
  %133 = load ptr, ptr %5, align 8, !tbaa !78
  %134 = call i32 @evp_keymgmt_gen_set_params(ptr noundef %128, ptr noundef %132, ptr noundef %133)
  store i32 %134, ptr %3, align 4
  br label %174

135:                                              ; preds = %118, %113, %107
  %136 = load ptr, ptr %4, align 8, !tbaa !18
  %137 = getelementptr inbounds nuw %struct.evp_pkey_ctx_st, ptr %136, i32 0, i32 0
  %138 = load i32, ptr %137, align 8, !tbaa !20
  %139 = and i32 %138, 12288
  %140 = icmp ne i32 %139, 0
  br i1 %140, label %141, label %168

141:                                              ; preds = %135
  %142 = load ptr, ptr %4, align 8, !tbaa !18
  %143 = getelementptr inbounds nuw %struct.evp_pkey_ctx_st, ptr %142, i32 0, i32 5
  %144 = getelementptr inbounds nuw %struct.anon.3, ptr %143, i32 0, i32 0
  %145 = load ptr, ptr %144, align 8, !tbaa !31
  %146 = icmp ne ptr %145, null
  br i1 %146, label %147, label %168

147:                                              ; preds = %141
  %148 = load ptr, ptr %4, align 8, !tbaa !18
  %149 = getelementptr inbounds nuw %struct.evp_pkey_ctx_st, ptr %148, i32 0, i32 5
  %150 = getelementptr inbounds nuw %struct.anon.3, ptr %149, i32 0, i32 0
  %151 = load ptr, ptr %150, align 8, !tbaa !31
  %152 = getelementptr inbounds nuw %struct.evp_kem_st, ptr %151, i32 0, i32 14
  %153 = load ptr, ptr %152, align 8, !tbaa !85
  %154 = icmp ne ptr %153, null
  br i1 %154, label %155, label %168

155:                                              ; preds = %147
  %156 = load ptr, ptr %4, align 8, !tbaa !18
  %157 = getelementptr inbounds nuw %struct.evp_pkey_ctx_st, ptr %156, i32 0, i32 5
  %158 = getelementptr inbounds nuw %struct.anon.3, ptr %157, i32 0, i32 0
  %159 = load ptr, ptr %158, align 8, !tbaa !31
  %160 = getelementptr inbounds nuw %struct.evp_kem_st, ptr %159, i32 0, i32 14
  %161 = load ptr, ptr %160, align 8, !tbaa !85
  %162 = load ptr, ptr %4, align 8, !tbaa !18
  %163 = getelementptr inbounds nuw %struct.evp_pkey_ctx_st, ptr %162, i32 0, i32 5
  %164 = getelementptr inbounds nuw %struct.anon.3, ptr %163, i32 0, i32 1
  %165 = load ptr, ptr %164, align 8, !tbaa !31
  %166 = load ptr, ptr %5, align 8, !tbaa !78
  %167 = call i32 %161(ptr noundef %165, ptr noundef %166)
  store i32 %167, ptr %3, align 4
  br label %174

168:                                              ; preds = %147, %141, %135
  br label %173

169:                                              ; preds = %2, %2
  %170 = load ptr, ptr %4, align 8, !tbaa !18
  %171 = load ptr, ptr %5, align 8, !tbaa !78
  %172 = call i32 @evp_pkey_ctx_set_params_to_ctrl(ptr noundef %170, ptr noundef %171)
  store i32 %172, ptr %3, align 4
  br label %174

173:                                              ; preds = %2, %168
  store i32 0, ptr %3, align 4
  br label %174

174:                                              ; preds = %173, %169, %155, %125, %94, %61, %28
  %175 = load i32, ptr %3, align 4
  ret i32 %175
}