; Function Attrs: nounwind uwtable
define i32 @EVP_PKEY_CTX_set_params(ptr noundef %0, ptr noundef %1) local_unnamed_addr #0 {
  %3 = load i32, ptr %0, align 8, !tbaa !15
  %4 = icmp eq i32 %3, 0
  br i1 %4, label %88, label %5

5:                                                ; preds = %2
  %6 = and i32 %3, 2048
  %.not.i = icmp eq i32 %6, 0
  br i1 %.not.i, label %10, label %7

7:                                                ; preds = %5
  %8 = getelementptr inbounds nuw i8, ptr %0, i64 48
  %9 = load ptr, ptr %8, align 8, !tbaa !26
  %.not12.i = icmp eq ptr %9, null
  br i1 %.not12.i, label %10, label %.thread

10:                                               ; preds = %7, %5
  %11 = and i32 %3, 49648
  %.not13.i = icmp eq i32 %11, 0
  br i1 %.not13.i, label %15, label %12

12:                                               ; preds = %10
  %13 = getelementptr inbounds nuw i8, ptr %0, i64 48
  %14 = load ptr, ptr %13, align 8, !tbaa !26
  %.not14.i = icmp eq ptr %14, null
  br i1 %.not14.i, label %15, label %30

15:                                               ; preds = %12, %10
  %16 = and i32 %3, 1536
  %.not15.i = icmp eq i32 %16, 0
  br i1 %.not15.i, label %20, label %17

17:                                               ; preds = %15
  %18 = getelementptr inbounds nuw i8, ptr %0, i64 48
  %19 = load ptr, ptr %18, align 8, !tbaa !26
  %.not16.i = icmp eq ptr %19, null
  br i1 %.not16.i, label %20, label %30

20:                                               ; preds = %17, %15
  %21 = and i32 %3, 6
  %.not17.i = icmp eq i32 %21, 0
  br i1 %.not17.i, label %25, label %22

22:                                               ; preds = %20
  %23 = getelementptr inbounds nuw i8, ptr %0, i64 40
  %24 = load ptr, ptr %23, align 8, !tbaa !26
  %.not18.i = icmp eq ptr %24, null
  br i1 %.not18.i, label %25, label %30

25:                                               ; preds = %22, %20
  %26 = and i32 %3, 12288
  %.not19.i = icmp eq i32 %26, 0
  br i1 %.not19.i, label %88, label %27

27:                                               ; preds = %25
  %28 = getelementptr inbounds nuw i8, ptr %0, i64 48
  %29 = load ptr, ptr %28, align 8, !tbaa !26
  %.not20.i = icmp eq ptr %29, null
  br i1 %.not20.i, label %88, label %30

30:                                               ; preds = %27, %22, %17, %12
  br i1 %.not.i, label %40, label %.thread

.thread:                                          ; preds = %7, %30
  %31 = getelementptr inbounds nuw i8, ptr %0, i64 40
  %32 = load ptr, ptr %31, align 8, !tbaa !26
  %.not42 = icmp eq ptr %32, null
  br i1 %.not42, label %40, label %33

33:                                               ; preds = %.thread
  %34 = getelementptr inbounds nuw i8, ptr %32, i64 88
  %35 = load ptr, ptr %34, align 8, !tbaa !72
  %.not43 = icmp eq ptr %35, null
  br i1 %.not43, label %40, label %36

36:                                               ; preds = %33
  %37 = getelementptr inbounds nuw i8, ptr %0, i64 48
  %38 = load ptr, ptr %37, align 8, !tbaa !26
  %39 = tail call i32 %35(ptr noundef %38, ptr noundef %1) #10
  br label %90

40:                                               ; preds = %33, %.thread, %30
  %41 = and i32 %3, 49648
  %.not44 = icmp eq i32 %41, 0
  br i1 %.not44, label %52, label %42

42:                                               ; preds = %40
  %43 = getelementptr inbounds nuw i8, ptr %0, i64 40
  %44 = load ptr, ptr %43, align 8, !tbaa !26
  %.not45 = icmp eq ptr %44, null
  br i1 %.not45, label %52, label %45

45:                                               ; preds = %42
  %46 = getelementptr inbounds nuw i8, ptr %44, i64 240
  %47 = load ptr, ptr %46, align 8, !tbaa !73
  %.not46 = icmp eq ptr %47, null
  br i1 %.not46, label %52, label %48

48:                                               ; preds = %45
  %49 = getelementptr inbounds nuw i8, ptr %0, i64 48
  %50 = load ptr, ptr %49, align 8, !tbaa !26
  %51 = tail call i32 %47(ptr noundef %50, ptr noundef %1) #10
  br label %90

52:                                               ; preds = %45, %42, %40
  %53 = and i32 %3, 1536
  %.not47 = icmp eq i32 %53, 0
  br i1 %.not47, label %64, label %54

54:                                               ; preds = %52
  %55 = getelementptr inbounds nuw i8, ptr %0, i64 40
  %56 = load ptr, ptr %55, align 8, !tbaa !26
  %.not48 = icmp eq ptr %56, null
  br i1 %.not48, label %64, label %57

57:                                               ; preds = %54
  %58 = getelementptr inbounds nuw i8, ptr %56, i64 112
  %59 = load ptr, ptr %58, align 8, !tbaa !74
  %.not49 = icmp eq ptr %59, null
  br i1 %.not49, label %64, label %60

60:                                               ; preds = %57
  %61 = getelementptr inbounds nuw i8, ptr %0, i64 48
  %62 = load ptr, ptr %61, align 8, !tbaa !26
  %63 = tail call i32 %59(ptr noundef %62, ptr noundef %1) #10
  br label %90

64:                                               ; preds = %57, %54, %52
  %65 = and i32 %3, 6
  %.not50 = icmp eq i32 %65, 0
  br i1 %.not50, label %76, label %66

66:                                               ; preds = %64
  %67 = getelementptr inbounds nuw i8, ptr %0, i64 32
  %68 = load ptr, ptr %67, align 8, !tbaa !43
  %.not51 = icmp eq ptr %68, null
  br i1 %.not51, label %76, label %69

69:                                               ; preds = %66
  %70 = getelementptr inbounds nuw i8, ptr %68, i64 128
  %71 = load ptr, ptr %70, align 8, !tbaa !75
  %.not52 = icmp eq ptr %71, null
  br i1 %.not52, label %76, label %72

72:                                               ; preds = %69
  %73 = getelementptr inbounds nuw i8, ptr %0, i64 40
  %74 = load ptr, ptr %73, align 8, !tbaa !26
  %75 = tail call i32 @evp_keymgmt_gen_set_params(ptr noundef nonnull %68, ptr noundef %74, ptr noundef %1) #10
  br label %90

76:                                               ; preds = %69, %66, %64
  %77 = and i32 %3, 12288
  %.not53 = icmp eq i32 %77, 0
  br i1 %.not53, label %90, label %78

78:                                               ; preds = %76
  %79 = getelementptr inbounds nuw i8, ptr %0, i64 40
  %80 = load ptr, ptr %79, align 8, !tbaa !26
  %.not54 = icmp eq ptr %80, null
  br i1 %.not54, label %90, label %81

81:                                               ; preds = %78
  %82 = getelementptr inbounds nuw i8, ptr %80, i64 112
  %83 = load ptr, ptr %82, align 8, !tbaa !77
  %.not55 = icmp eq ptr %83, null
  br i1 %.not55, label %90, label %84

84:                                               ; preds = %81
  %85 = getelementptr inbounds nuw i8, ptr %0, i64 48
  %86 = load ptr, ptr %85, align 8, !tbaa !26
  %87 = tail call i32 %83(ptr noundef %86, ptr noundef %1) #10
  br label %90

88:                                               ; preds = %25, %27, %2
  %89 = tail call i32 @evp_pkey_ctx_set_params_to_ctrl(ptr noundef nonnull %0, ptr noundef %1) #10
  br label %90

90:                                               ; preds = %81, %78, %76, %88, %84, %72, %60, %48, %36
  %.0 = phi i32 [ %89, %88 ], [ %39, %36 ], [ %51, %48 ], [ %63, %60 ], [ %75, %72 ], [ %87, %84 ], [ 0, %76 ], [ 0, %78 ], [ 0, %81 ]
  ret i32 %.0
}